target datalayout = "e-m:e-p270:32:32-p271:32:32-p272:64:64-i64:64-i128:128-f80:128-n8:16:32:64-S128"
target triple = "x86_64-pc-linux-gnu"

%"class.std::shared_ptr" = type { %"class.std::__shared_ptr" }
%"class.std::__shared_ptr" = type { ptr, %"class.std::__shared_count" }
%"class.std::__shared_count" = type { ptr }
%"class.cv::gapi::onnx::PyParams" = type { %"class.std::shared_ptr" }
%"class.cv::gapi::onnx::Params" = type { %"struct.cv::gapi::onnx::detail::ParamDesc", %"class.std::__cxx11::basic_string" }
%"struct.cv::gapi::onnx::detail::ParamDesc" = type { %"class.std::__cxx11::basic_string", i64, i64, %"class.std::vector", %"class.std::vector", %"class.std::unordered_map", %"class.std::vector.8", %"class.std::vector.8", %"class.std::vector.13", %"class.std::function", %"class.std::vector.19", %"class.std::vector", i8, %"class.std::unordered_map.23", %"class.std::unordered_map.37", %"class.std::map", %"class.std::vector.54", i8, [7 x i8], %"class.cv::util::optional" }
%"class.std::unordered_map" = type { %"class.std::_Hashtable" }
%"class.std::_Hashtable" = type { ptr, i64, %"struct.std::__detail::_Hash_node_base", i64, %"struct.std::__detail::_Prime_rehash_policy", ptr }
%"struct.std::__detail::_Hash_node_base" = type { ptr }
%"struct.std::__detail::_Prime_rehash_policy" = type { float, i64 }
%"class.std::vector.8" = type { %"struct.std::_Vector_base.9" }
%"struct.std::_Vector_base.9" = type { %"struct.std::_Vector_base<cv::Scalar_<double>, std::allocator<cv::Scalar_<double>>>::_Vector_impl" }
%"struct.std::_Vector_base<cv::Scalar_<double>, std::allocator<cv::Scalar_<double>>>::_Vector_impl" = type { %"struct.std::_Vector_base<cv::Scalar_<double>, std::allocator<cv::Scalar_<double>>>::_Vector_impl_data" }
%"struct.std::_Vector_base<cv::Scalar_<double>, std::allocator<cv::Scalar_<double>>>::_Vector_impl_data" = type { ptr, ptr, ptr }
%"class.std::vector.13" = type { %"struct.std::_Vector_base.14" }
%"struct.std::_Vector_base.14" = type { %"struct.std::_Vector_base<cv::GMatDesc, std::allocator<cv::GMatDesc>>::_Vector_impl" }
%"struct.std::_Vector_base<cv::GMatDesc, std::allocator<cv::GMatDesc>>::_Vector_impl" = type { %"struct.std::_Vector_base<cv::GMatDesc, std::allocator<cv::GMatDesc>>::_Vector_impl_data" }
%"struct.std::_Vector_base<cv::GMatDesc, std::allocator<cv::GMatDesc>>::_Vector_impl_data" = type { ptr, ptr, ptr }
%"class.std::function" = type { %"class.std::_Function_base", ptr }
%"class.std::_Function_base" = type { %"union.std::_Any_data", ptr }
%"union.std::_Any_data" = type { %"union.std::_Nocopy_types" }
%"union.std::_Nocopy_types" = type { { i64, i64 } }
%"class.std::vector.19" = type { %"struct.std::_Bvector_base" }
%"struct.std::_Bvector_base" = type { %"struct.std::_Bvector_base<std::allocator<bool>>::_Bvector_impl" }
%"struct.std::_Bvector_base<std::allocator<bool>>::_Bvector_impl" = type { %"struct.std::_Bvector_base<std::allocator<bool>>::_Bvector_impl_data" }
%"struct.std::_Bvector_base<std::allocator<bool>>::_Bvector_impl_data" = type { %"struct.std::_Bit_iterator", %"struct.std::_Bit_iterator", ptr }
%"struct.std::_Bit_iterator" = type { %"struct.std::_Bit_iterator_base.base", [4 x i8] }
%"struct.std::_Bit_iterator_base.base" = type <{ ptr, i32 }>
%"class.std::vector" = type { %"struct.std::_Vector_base" }
%"struct.std::_Vector_base" = type { %"struct.std::_Vector_base<std::__cxx11::basic_string<char>, std::allocator<std::__cxx11::basic_string<char>>>::_Vector_impl" }
%"struct.std::_Vector_base<std::__cxx11::basic_string<char>, std::allocator<std::__cxx11::basic_string<char>>>::_Vector_impl" = type { %"struct.std::_Vector_base<std::__cxx11::basic_string<char>, std::allocator<std::__cxx11::basic_string<char>>>::_Vector_impl_data" }
%"struct.std::_Vector_base<std::__cxx11::basic_string<char>, std::allocator<std::__cxx11::basic_string<char>>>::_Vector_impl_data" = type { ptr, ptr, ptr }
%"class.std::unordered_map.23" = type { %"class.std::_Hashtable.24" }
%"class.std::_Hashtable.24" = type { ptr, i64, %"struct.std::__detail::_Hash_node_base", i64, %"struct.std::__detail::_Prime_rehash_policy", ptr }
%"class.std::unordered_map.37" = type { %"class.std::_Hashtable.38" }
%"class.std::_Hashtable.38" = type { ptr, i64, %"struct.std::__detail::_Hash_node_base", i64, %"struct.std::__detail::_Prime_rehash_policy", ptr }
%"class.std::map" = type { %"class.std::_Rb_tree" }
%"class.std::_Rb_tree" = type { %"struct.std::_Rb_tree<std::__cxx11::basic_string<char>, std::pair<const std::__cxx11::basic_string<char>, std::__cxx11::basic_string<char>>, std::_Select1st<std::pair<const std::__cxx11::basic_string<char>, std::__cxx11::basic_string<char>>>, std::less<std::__cxx11::basic_string<char>>>::_Rb_tree_impl" }
%"struct.std::_Rb_tree<std::__cxx11::basic_string<char>, std::pair<const std::__cxx11::basic_string<char>, std::__cxx11::basic_string<char>>, std::_Select1st<std::pair<const std::__cxx11::basic_string<char>, std::__cxx11::basic_string<char>>>, std::less<std::__cxx11::basic_string<char>>>::_Rb_tree_impl" = type { [8 x i8], %"struct.std::_Rb_tree_header" }
%"struct.std::_Rb_tree_header" = type { %"struct.std::_Rb_tree_node_base", i64 }
%"struct.std::_Rb_tree_node_base" = type { i32, ptr, ptr, ptr }
%"class.std::vector.54" = type { %"struct.std::_Vector_base.55" }
%"struct.std::_Vector_base.55" = type { %"struct.std::_Vector_base<cv::util::variant<cv::util::monostate, cv::gapi::onnx::ep::OpenVINO, cv::gapi::onnx::ep::DirectML, cv::gapi::onnx::ep::CoreML, cv::gapi::onnx::ep::CUDA, cv::gapi::onnx::ep::TensorRT>, std::allocator<cv::util::variant<cv::util::monostate, cv::gapi::onnx::ep::OpenVINO, cv::gapi::onnx::ep::DirectML, cv::gapi::onnx::ep::CoreML, cv::gapi::onnx::ep::CUDA, cv::gapi::onnx::ep::TensorRT>>>::_Vector_impl" }
%"struct.std::_Vector_base<cv::util::variant<cv::util::monostate, cv::gapi::onnx::ep::OpenVINO, cv::gapi::onnx::ep::DirectML, cv::gapi::onnx::ep::CoreML, cv::gapi::onnx::ep::CUDA, cv::gapi::onnx::ep::TensorRT>, std::allocator<cv::util::variant<cv::util::monostate, cv::gapi::onnx::ep::OpenVINO, cv::gapi::onnx::ep::DirectML, cv::gapi::onnx::ep::CoreML, cv::gapi::onnx::ep::CUDA, cv::gapi::onnx::ep::TensorRT>>>::_Vector_impl" = type { %"struct.std::_Vector_base<cv::util::variant<cv::util::monostate, cv::gapi::onnx::ep::OpenVINO, cv::gapi::onnx::ep::DirectML, cv::gapi::onnx::ep::CoreML, cv::gapi::onnx::ep::CUDA, cv::gapi::onnx::ep::TensorRT>, std::allocator<cv::util::variant<cv::util::monostate, cv::gapi::onnx::ep::OpenVINO, cv::gapi::onnx::ep::DirectML, cv::gapi::onnx::ep::CoreML, cv::gapi::onnx::ep::CUDA, cv::gapi::onnx::ep::TensorRT>>>::_Vector_impl_data" }
%"struct.std::_Vector_base<cv::util::variant<cv::util::monostate, cv::gapi::onnx::ep::OpenVINO, cv::gapi::onnx::ep::DirectML, cv::gapi::onnx::ep::CoreML, cv::gapi::onnx::ep::CUDA, cv::gapi::onnx::ep::TensorRT>, std::allocator<cv::util::variant<cv::util::monostate, cv::gapi::onnx::ep::OpenVINO, cv::gapi::onnx::ep::DirectML, cv::gapi::onnx::ep::CoreML, cv::gapi::onnx::ep::CUDA, cv::gapi::onnx::ep::TensorRT>>>::_Vector_impl_data" = type { ptr, ptr, ptr }
%"class.cv::util::optional" = type { %"class.cv::util::variant" }
%"class.cv::util::variant" = type <{ i64, [1 x %"union.std::aligned_storage<4, 4>::type"], [4 x i8] }>
%"union.std::aligned_storage<4, 4>::type" = type { [4 x i8] }
%"class.std::__cxx11::basic_string" = type { %"struct.std::__cxx11::basic_string<char>::_Alloc_hider", i64, %union.anon }
%"struct.std::__cxx11::basic_string<char>::_Alloc_hider" = type { ptr }
%union.anon = type { i64, [8 x i8] }
%"struct.cv::gapi::onnx::ep::CoreML" = type { i8, i8, i8 }
%"class.__gnu_cxx::__normal_iterator" = type { ptr }
%"class.cv::util::variant.89" = type { i64, [1 x %"union.std::aligned_storage<128, 8>::type"] }
%"union.std::aligned_storage<128, 8>::type" = type { [128 x i8] }
%"struct.std::array" = type { [6 x ptr] }

; Function Attrs: mustprogress nounwind uwtable
define linkonce_odr hidden noundef nonnull align 8 dereferenceable(8) ptr @_ZNSt14__array_traitsIPFvPNSt15aligned_storageILm128ELm8EE4typeEPvELm6EE6_S_refERA6_KS6_m(ptr noundef nonnull align 8 dereferenceable(48) %0, i64 noundef %1) #6 comdat align 2 {
  %3 = alloca ptr, align 8
  %4 = alloca i64, align 8
  store ptr %0, ptr %3, align 8, !tbaa !305
  store i64 %1, ptr %4, align 8, !tbaa !111
  %5 = load ptr, ptr %3, align 8, !tbaa !305
  %6 = load i64, ptr %4, align 8, !tbaa !111
  %7 = getelementptr inbounds nuw [6 x ptr], ptr %5, i64 0, i64 %6
  ret ptr %7
}

; Function Attrs: mustprogress nounwind uwtable
define linkonce_odr hidden noundef nonnull align 8 dereferenceable(8) ptr @_ZNSt5arrayIPFvPNSt15aligned_storageILm128ELm8EE4typeEPvELm6EEixEm(ptr noundef nonnull align 8 dereferenceable(48) %0, i64 noundef %1) #6 comdat align 2 {
  %3 = alloca ptr, align 8
  %4 = alloca i64, align 8
  store ptr %0, ptr %3, align 8, !tbaa !275
  store i64 %1, ptr %4, align 8, !tbaa !111
  %5 = load ptr, ptr %3, align 8
  %6 = getelementptr inbounds nuw %"struct.std::array", ptr %5, i32 0, i32 0
  %7 = load i64, ptr %4, align 8, !tbaa !111
  %8 = call noundef nonnull align 8 dereferenceable(8) ptr @_ZNSt14__array_traitsIPFvPNSt15aligned_storageILm128ELm8EE4typeEPvELm6EE6_S_refERA6_KS6_m(ptr noundef nonnull align 8 dereferenceable(48) %6, i64 noundef %7) #3
  ret ptr %8
}

; Function Attrs: mustprogress nounwind uwtable
define linkonce_odr hidden void @_ZN2cv4util7variantIJNS0_9monostateENS_4gapi4onnx2ep8OpenVINOENS5_8DirectMLENS5_6CoreMLENS5_4CUDAENS5_8TensorRTEEE11cnvrt_ctorsILb0EEESt5arrayIPFvPNSt15aligned_storageILm128ELm8EE4typeEPvELm6EEv(ptr dead_on_unwind noalias writable sret(%"struct.std::array") align 8 %0) #6 comdat align 2 {
  %2 = getelementptr inbounds nuw %"struct.std::array", ptr %0, i32 0, i32 0
  call void @llvm.memcpy.p0.p0.i64(ptr align 8 %2, ptr align 8 @constinit, i64 48, i1 false), !tbaa.struct !274
  ret void
}

; Function Attrs: mustprogress uwtable
define linkonce_odr hidden void @_ZN2cv4util7variantIJNS0_9monostateENS_4gapi4onnx2ep8OpenVINOENS5_8DirectMLENS5_6CoreMLENS5_4CUDAENS5_8TensorRTEEEC2IS8_vEEOT_(ptr noundef nonnull align 8 dereferenceable(136) %0, ptr noundef nonnull align 1 dereferenceable(3) %1) unnamed_addr #4 comdat align 2 {
  %3 = alloca ptr, align 8
  %4 = alloca ptr, align 8
  %5 = alloca i8, align 1
  %6 = alloca %"struct.std::array", align 8
  store ptr %0, ptr %3, align 8, !tbaa !268
  store ptr %1, ptr %4, align 8, !tbaa !26
  %7 = load ptr, ptr %3, align 8
  %8 = getelementptr inbounds nuw %"class.cv::util::variant.89", ptr %7, i32 0, i32 0
  store i64 3, ptr %8, align 8, !tbaa !272
  call void @llvm.lifetime.start.p0(i64 1, ptr %5) #3
  store i8 0, ptr %5, align 1, !tbaa !18
  call void @llvm.lifetime.start.p0(i64 48, ptr %6) #3
  call void @_ZN2cv4util7variantIJNS0_9monostateENS_4gapi4onnx2ep8OpenVINOENS5_8DirectMLENS5_6CoreMLENS5_4CUDAENS5_8TensorRTEEE11cnvrt_ctorsILb0EEESt5arrayIPFvPNSt15aligned_storageILm128ELm8EE4typeEPvELm6EEv(ptr dead_on_unwind writable sret(%"struct.std::array") align 8 %6)
  %9 = getelementptr inbounds nuw %"class.cv::util::variant.89", ptr %7, i32 0, i32 0
  %10 = load i64, ptr %9, align 8, !tbaa !272
  %11 = call noundef nonnull align 8 dereferenceable(8) ptr @_ZNSt5arrayIPFvPNSt15aligned_storageILm128ELm8EE4typeEPvELm6EEixEm(ptr noundef nonnull align 8 dereferenceable(48) %6, i64 noundef %10) #3
  %12 = load ptr, ptr %11, align 8, !tbaa !147
  %13 = getelementptr inbounds nuw %"class.cv::util::variant.89", ptr %7, i32 0, i32 1
  %14 = getelementptr inbounds [1 x %"union.std::aligned_storage<128, 8>::type"], ptr %13, i64 0, i64 0
  %15 = load ptr, ptr %4, align 8, !tbaa !26
  call void %12(ptr noundef %14, ptr noundef %15)
  call void @llvm.lifetime.end.p0(i64 48, ptr %6) #3
  call void @llvm.lifetime.end.p0(i64 1, ptr %5) #3
  ret void
}

; Function Attrs: mustprogress nounwind uwtable
define linkonce_odr hidden void @_ZN9__gnu_cxx17__normal_iteratorIPN2cv4util7variantIJNS2_9monostateENS1_4gapi4onnx2ep8OpenVINOENS7_8DirectMLENS7_6CoreMLENS7_4CUDAENS7_8TensorRTEEEESt6vectorISD_SaISD_EEEC2ERKSE_(ptr noundef nonnull align 8 dereferenceable(8) %0, ptr noundef nonnull align 8 dereferenceable(8) %1) unnamed_addr #6 comdat align 2 {
  %3 = alloca ptr, align 8
  %4 = alloca ptr, align 8
  store ptr %0, ptr %3, align 8, !tbaa !306
  store ptr %1, ptr %4, align 8, !tbaa !310
  %5 = load ptr, ptr %3, align 8
  %6 = getelementptr inbounds nuw %"class.__gnu_cxx::__normal_iterator", ptr %5, i32 0, i32 0
  %7 = load ptr, ptr %4, align 8, !tbaa !310
  %8 = load ptr, ptr %7, align 8, !tbaa !268
  store ptr %8, ptr %6, align 8, !tbaa !312
  ret void
}

; Function Attrs: mustprogress uwtable
define linkonce_odr hidden void @_ZNSt15__new_allocatorIN2cv4util7variantIJNS1_9monostateENS0_4gapi4onnx2ep8OpenVINOENS6_8DirectMLENS6_6CoreMLENS6_4CUDAENS6_8TensorRTEEEEE9constructISC_JS9_EEEvPT_DpOT0_(ptr noundef nonnull align 1 dereferenceable(1) %0, ptr noundef %1, ptr noundef nonnull align 1 dereferenceable(3) %2) #4 comdat align 2 {
  %4 = alloca ptr, align 8
  %5 = alloca ptr, align 8
  %6 = alloca ptr, align 8
  store ptr %0, ptr %4, align 8, !tbaa !270
  store ptr %1, ptr %5, align 8, !tbaa !268
  store ptr %2, ptr %6, align 8, !tbaa !26
  %7 = load ptr, ptr %5, align 8, !tbaa !268
  %8 = load ptr, ptr %6, align 8, !tbaa !26
  call void @_ZN2cv4util7variantIJNS0_9monostateENS_4gapi4onnx2ep8OpenVINOENS5_8DirectMLENS5_6CoreMLENS5_4CUDAENS5_8TensorRTEEEC2IS8_vEEOT_(ptr noundef nonnull align 8 dereferenceable(136) %7, ptr noundef nonnull align 1 dereferenceable(3) %8)
  ret void
}

; Function Attrs: mustprogress nounwind uwtable
define linkonce_odr hidden ptr @_ZNSt6vectorIN2cv4util7variantIJNS1_9monostateENS0_4gapi4onnx2ep8OpenVINOENS6_8DirectMLENS6_6CoreMLENS6_4CUDAENS6_8TensorRTEEEESaISC_EE3endEv(ptr noundef nonnull align 8 dereferenceable(24) %0) #6 comdat align 2 {
  %2 = alloca %"class.__gnu_cxx::__normal_iterator", align 8
  %3 = alloca ptr, align 8
  store ptr %0, ptr %3, align 8, !tbaa !262
  %4 = load ptr, ptr %3, align 8
  %5 = getelementptr inbounds nuw %"struct.std::_Vector_base.55", ptr %4, i32 0, i32 0
  %6 = getelementptr inbounds nuw %"struct.std::_Vector_base<cv::util::variant<cv::util::monostate, cv::gapi::onnx::ep::OpenVINO, cv::gapi::onnx::ep::DirectML, cv::gapi::onnx::ep::CoreML, cv::gapi::onnx::ep::CUDA, cv::gapi::onnx::ep::TensorRT>, std::allocator<cv::util::variant<cv::util::monostate, cv::gapi::onnx::ep::OpenVINO, cv::gapi::onnx::ep::DirectML, cv::gapi::onnx::ep::CoreML, cv::gapi::onnx::ep::CUDA, cv::gapi::onnx::ep::TensorRT>>>::_Vector_impl_data", ptr %5, i32 0, i32 1
  call void @_ZN9__gnu_cxx17__normal_iteratorIPN2cv4util7variantIJNS2_9monostateENS1_4gapi4onnx2ep8OpenVINOENS7_8DirectMLENS7_6CoreMLENS7_4CUDAENS7_8TensorRTEEEESt6vectorISD_SaISD_EEEC2ERKSE_(ptr noundef nonnull align 8 dereferenceable(8) %2, ptr noundef nonnull align 8 dereferenceable(8) %6) #3
  %7 = getelementptr inbounds nuw %"class.__gnu_cxx::__normal_iterator", ptr %2, i32 0, i32 0
  %8 = load ptr, ptr %7, align 8
  ret ptr %8
}

; Function Attrs: mustprogress uwtable
define linkonce_odr hidden void @_ZNSt16allocator_traitsISaIN2cv4util7variantIJNS1_9monostateENS0_4gapi4onnx2ep8OpenVINOENS6_8DirectMLENS6_6CoreMLENS6_4CUDAENS6_8TensorRTEEEEEE9constructISC_JS9_EEEvRSD_PT_DpOT0_(ptr noundef nonnull align 1 dereferenceable(1) %0, ptr noundef %1, ptr noundef nonnull align 1 dereferenceable(3) %2) #4 comdat align 2 {
  %4 = alloca ptr, align 8
  %5 = alloca ptr, align 8
  %6 = alloca ptr, align 8
  store ptr %0, ptr %4, align 8, !tbaa !266
  store ptr %1, ptr %5, align 8, !tbaa !268
  store ptr %2, ptr %6, align 8, !tbaa !26
  %7 = load ptr, ptr %4, align 8, !tbaa !266
  %8 = load ptr, ptr %5, align 8, !tbaa !268
  %9 = load ptr, ptr %6, align 8, !tbaa !26
  call void @_ZNSt15__new_allocatorIN2cv4util7variantIJNS1_9monostateENS0_4gapi4onnx2ep8OpenVINOENS6_8DirectMLENS6_6CoreMLENS6_4CUDAENS6_8TensorRTEEEEE9constructISC_JS9_EEEvPT_DpOT0_(ptr noundef nonnull align 1 dereferenceable(1) %7, ptr noundef %8, ptr noundef nonnull align 1 dereferenceable(3) %9)
  ret void
}

; Function Attrs: mustprogress nounwind uwtable
define linkonce_odr hidden noundef ptr @_ZNKSt12__shared_ptrIN2cv4gapi4onnx6ParamsINS1_7GenericEEELN9__gnu_cxx12_Lock_policyE2EE3getEv(ptr noundef nonnull align 8 dereferenceable(16) %0) #6 comdat align 2 {
  %2 = alloca ptr, align 8
  store ptr %0, ptr %2, align 8, !tbaa !622
  %3 = load ptr, ptr %2, align 8
  %4 = getelementptr inbounds nuw %"class.std::__shared_ptr", ptr %3, i32 0, i32 0
  %5 = load ptr, ptr %4, align 8, !tbaa !624
  ret ptr %5
}

; Function Attrs: mustprogress uwtable
define linkonce_odr hidden void @_ZNSt6vectorIN2cv4util7variantIJNS1_9monostateENS0_4gapi4onnx2ep8OpenVINOENS6_8DirectMLENS6_6CoreMLENS6_4CUDAENS6_8TensorRTEEEESaISC_EE12emplace_backIJS9_EEEvDpOT_(ptr noundef nonnull align 8 dereferenceable(24) %0, ptr noundef nonnull align 1 dereferenceable(3) %1) #4 comdat align 2 {
  %3 = alloca ptr, align 8
  %4 = alloca ptr, align 8
  %5 = alloca %"class.__gnu_cxx::__normal_iterator", align 8
  store ptr %0, ptr %3, align 8, !tbaa !262
  store ptr %1, ptr %4, align 8, !tbaa !26
  %6 = load ptr, ptr %3, align 8
  %7 = getelementptr inbounds nuw %"struct.std::_Vector_base.55", ptr %6, i32 0, i32 0
  %8 = getelementptr inbounds nuw %"struct.std::_Vector_base<cv::util::variant<cv::util::monostate, cv::gapi::onnx::ep::OpenVINO, cv::gapi::onnx::ep::DirectML, cv::gapi::onnx::ep::CoreML, cv::gapi::onnx::ep::CUDA, cv::gapi::onnx::ep::TensorRT>, std::allocator<cv::util::variant<cv::util::monostate, cv::gapi::onnx::ep::OpenVINO, cv::gapi::onnx::ep::DirectML, cv::gapi::onnx::ep::CoreML, cv::gapi::onnx::ep::CUDA, cv::gapi::onnx::ep::TensorRT>>>::_Vector_impl_data", ptr %7, i32 0, i32 1
  %9 = load ptr, ptr %8, align 8, !tbaa !264
  %10 = getelementptr inbounds nuw %"struct.std::_Vector_base.55", ptr %6, i32 0, i32 0
  %11 = getelementptr inbounds nuw %"struct.std::_Vector_base<cv::util::variant<cv::util::monostate, cv::gapi::onnx::ep::OpenVINO, cv::gapi::onnx::ep::DirectML, cv::gapi::onnx::ep::CoreML, cv::gapi::onnx::ep::CUDA, cv::gapi::onnx::ep::TensorRT>, std::allocator<cv::util::variant<cv::util::monostate, cv::gapi::onnx::ep::OpenVINO, cv::gapi::onnx::ep::DirectML, cv::gapi::onnx::ep::CoreML, cv::gapi::onnx::ep::CUDA, cv::gapi::onnx::ep::TensorRT>>>::_Vector_impl_data", ptr %10, i32 0, i32 2
  %12 = load ptr, ptr %11, align 8, !tbaa !265
  %13 = icmp ne ptr %9, %12
  br i1 %13, label %14, label %24

14:                                               ; preds = %2
  %15 = getelementptr inbounds nuw %"struct.std::_Vector_base.55", ptr %6, i32 0, i32 0
  %16 = getelementptr inbounds nuw %"struct.std::_Vector_base.55", ptr %6, i32 0, i32 0
  %17 = getelementptr inbounds nuw %"struct.std::_Vector_base<cv::util::variant<cv::util::monostate, cv::gapi::onnx::ep::OpenVINO, cv::gapi::onnx::ep::DirectML, cv::gapi::onnx::ep::CoreML, cv::gapi::onnx::ep::CUDA, cv::gapi::onnx::ep::TensorRT>, std::allocator<cv::util::variant<cv::util::monostate, cv::gapi::onnx::ep::OpenVINO, cv::gapi::onnx::ep::DirectML, cv::gapi::onnx::ep::CoreML, cv::gapi::onnx::ep::CUDA, cv::gapi::onnx::ep::TensorRT>>>::_Vector_impl_data", ptr %16, i32 0, i32 1
  %18 = load ptr, ptr %17, align 8, !tbaa !264
  %19 = load ptr, ptr %4, align 8, !tbaa !26
  call void @_ZNSt16allocator_traitsISaIN2cv4util7variantIJNS1_9monostateENS0_4gapi4onnx2ep8OpenVINOENS6_8DirectMLENS6_6CoreMLENS6_4CUDAENS6_8TensorRTEEEEEE9constructISC_JS9_EEEvRSD_PT_DpOT0_(ptr noundef nonnull align 1 dereferenceable(1) %15, ptr noundef %18, ptr noundef nonnull align 1 dereferenceable(3) %19)
  %20 = getelementptr inbounds nuw %"struct.std::_Vector_base.55", ptr %6, i32 0, i32 0
  %21 = getelementptr inbounds nuw %"struct.std::_Vector_base<cv::util::variant<cv::util::monostate, cv::gapi::onnx::ep::OpenVINO, cv::gapi::onnx::ep::DirectML, cv::gapi::onnx::ep::CoreML, cv::gapi::onnx::ep::CUDA, cv::gapi::onnx::ep::TensorRT>, std::allocator<cv::util::variant<cv::util::monostate, cv::gapi::onnx::ep::OpenVINO, cv::gapi::onnx::ep::DirectML, cv::gapi::onnx::ep::CoreML, cv::gapi::onnx::ep::CUDA, cv::gapi::onnx::ep::TensorRT>>>::_Vector_impl_data", ptr %20, i32 0, i32 1
  %22 = load ptr, ptr %21, align 8, !tbaa !264
  %23 = getelementptr inbounds nuw %"class.cv::util::variant.89", ptr %22, i32 1
  store ptr %23, ptr %21, align 8, !tbaa !264
  br label %30

24:                                               ; preds = %2
  %25 = call ptr @_ZNSt6vectorIN2cv4util7variantIJNS1_9monostateENS0_4gapi4onnx2ep8OpenVINOENS6_8DirectMLENS6_6CoreMLENS6_4CUDAENS6_8TensorRTEEEESaISC_EE3endEv(ptr noundef nonnull align 8 dereferenceable(24) %6) #3
  %26 = getelementptr inbounds nuw %"class.__gnu_cxx::__normal_iterator", ptr %5, i32 0, i32 0
  store ptr %25, ptr %26, align 8
  %27 = load ptr, ptr %4, align 8, !tbaa !26
  %28 = getelementptr inbounds nuw %"class.__gnu_cxx::__normal_iterator", ptr %5, i32 0, i32 0
  %29 = load ptr, ptr %28, align 8
  call void @_ZNSt6vectorIN2cv4util7variantIJNS1_9monostateENS0_4gapi4onnx2ep8OpenVINOENS6_8DirectMLENS6_6CoreMLENS6_4CUDAENS6_8TensorRTEEEESaISC_EE17_M_realloc_insertIJS9_EEEvN9__gnu_cxx17__normal_iteratorIPSC_SE_EEDpOT_(ptr noundef nonnull align 8 dereferenceable(24) %6, ptr %29, ptr noundef nonnull align 1 dereferenceable(3) %27)
  br label %30

30:                                               ; preds = %24, %14
  ret void
}

; Function Attrs: mustprogress nounwind uwtable
define linkonce_odr hidden noundef ptr @_ZNKSt19__shared_ptr_accessIN2cv4gapi4onnx6ParamsINS1_7GenericEEELN9__gnu_cxx12_Lock_policyE2ELb0ELb0EE6_M_getEv(ptr noundef nonnull align 1 dereferenceable(1) %0) #6 comdat align 2 {
  %2 = alloca ptr, align 8
  store ptr %0, ptr %2, align 8, !tbaa !14
  %3 = load ptr, ptr %2, align 8
  %4 = call noundef ptr @_ZNKSt12__shared_ptrIN2cv4gapi4onnx6ParamsINS1_7GenericEEELN9__gnu_cxx12_Lock_policyE2EE3getEv(ptr noundef nonnull align 8 dereferenceable(16) %3) #3
  ret ptr %4
}

; Function Attrs: mustprogress uwtable
define linkonce_odr hidden void @_ZN2cv4gapi4onnx6ParamsINS0_7GenericEE23cfgAddExecutionProviderEONS1_2ep6CoreMLE(ptr noundef nonnull align 8 dereferenceable(568) %0, ptr noundef nonnull align 1 dereferenceable(3) %1) #4 comdat align 2 {
  %3 = alloca ptr, align 8
  %4 = alloca ptr, align 8
  store ptr %0, ptr %3, align 8, !tbaa !16
  store ptr %1, ptr %4, align 8, !tbaa !26
  %5 = load ptr, ptr %3, align 8
  %6 = getelementptr inbounds nuw %"class.cv::gapi::onnx::Params", ptr %5, i32 0, i32 0
  %7 = getelementptr inbounds nuw %"struct.cv::gapi::onnx::detail::ParamDesc", ptr %6, i32 0, i32 16
  %8 = load ptr, ptr %4, align 8, !tbaa !26
  call void @_ZNSt6vectorIN2cv4util7variantIJNS1_9monostateENS0_4gapi4onnx2ep8OpenVINOENS6_8DirectMLENS6_6CoreMLENS6_4CUDAENS6_8TensorRTEEEESaISC_EE12emplace_backIJS9_EEEvDpOT_(ptr noundef nonnull align 8 dereferenceable(24) %7, ptr noundef nonnull align 1 dereferenceable(3) %8)
  ret void
}

; Function Attrs: mustprogress nounwind uwtable
define linkonce_odr hidden noundef ptr @_ZNKSt19__shared_ptr_accessIN2cv4gapi4onnx6ParamsINS1_7GenericEEELN9__gnu_cxx12_Lock_policyE2ELb0ELb0EEptEv(ptr noundef nonnull align 1 dereferenceable(1) %0) #6 comdat align 2 {
  %2 = alloca ptr, align 8
  store ptr %0, ptr %2, align 8, !tbaa !14
  %3 = load ptr, ptr %2, align 8
  %4 = call noundef ptr @_ZNKSt19__shared_ptr_accessIN2cv4gapi4onnx6ParamsINS1_7GenericEEELN9__gnu_cxx12_Lock_policyE2ELb0ELb0EE6_M_getEv(ptr noundef nonnull align 1 dereferenceable(1) %3) #3
  ret ptr %4
}

; Function Attrs: mustprogress uwtable
define noundef nonnull align 8 dereferenceable(16) ptr @_ZN2cv4gapi4onnx8PyParams23cfgAddExecutionProviderENS1_2ep6CoreMLE(ptr noundef nonnull align 8 dereferenceable(16) %0, i24 %1) #4 align 2 {
  %3 = alloca %"struct.cv::gapi::onnx::ep::CoreML", align 1
  %4 = alloca ptr, align 8
  store i24 %1, ptr %3, align 1
  store ptr %0, ptr %4, align 8, !tbaa !3
  %5 = load ptr, ptr %4, align 8
  %6 = getelementptr inbounds nuw %"class.cv::gapi::onnx::PyParams", ptr %5, i32 0, i32 0
  %7 = call noundef ptr @_ZNKSt19__shared_ptr_accessIN2cv4gapi4onnx6ParamsINS1_7GenericEEELN9__gnu_cxx12_Lock_policyE2ELb0ELb0EEptEv(ptr noundef nonnull align 1 dereferenceable(1) %6) #3
  call void @_ZN2cv4gapi4onnx6ParamsINS0_7GenericEE23cfgAddExecutionProviderEONS1_2ep6CoreMLE(ptr noundef nonnull align 8 dereferenceable(568) %7, ptr noundef nonnull align 1 dereferenceable(3) %3)
  ret ptr %5
}