; Function Attrs: mustprogress uwtable
define noundef nonnull align 8 dereferenceable(16) ptr @_ZN2cv4gapi4onnx8PyParams23cfgAddExecutionProviderENS1_2ep6CoreMLE(ptr noundef nonnull readonly returned align 8 dereferenceable(16) %0, i24 %1) local_unnamed_addr #3 align 2 {
  %3 = alloca %"struct.cv::gapi::onnx::ep::CoreML", align 4
  store i24 %1, ptr %3, align 4
  %4 = load ptr, ptr %0, align 8, !tbaa !6
  %5 = getelementptr inbounds nuw i8, ptr %4, i64 496
  %6 = load ptr, ptr %5, align 8, !tbaa !26
  %7 = getelementptr inbounds nuw i8, ptr %4, i64 504
  %8 = load ptr, ptr %7, align 8, !tbaa !29
  %.not.i.i = icmp eq ptr %6, %8
  br i1 %.not.i.i, label %13, label %9

9:                                                ; preds = %2
  store i64 3, ptr %6, align 8, !tbaa !30
  %10 = getelementptr inbounds nuw i8, ptr %6, i64 8
  call void @llvm.memcpy.p0.p0.i64(ptr noundef nonnull align 8 dereferenceable(3) %10, ptr noundef nonnull align 4 dereferenceable(3) %3, i64 3, i1 false), !tbaa.struct !36
  %11 = load ptr, ptr %5, align 8, !tbaa !26
  %12 = getelementptr inbounds nuw i8, ptr %11, i64 136
  store ptr %12, ptr %5, align 8, !tbaa !26
  br label %_ZN2cv4gapi4onnx6ParamsINS0_7GenericEE23cfgAddExecutionProviderEONS1_2ep6CoreMLE.exit

13:                                               ; preds = %2
  %14 = getelementptr inbounds nuw i8, ptr %4, i64 488
  call void @_ZNSt6vectorIN2cv4util7variantIJNS1_9monostateENS0_4gapi4onnx2ep8OpenVINOENS6_8DirectMLENS6_6CoreMLENS6_4CUDAENS6_8TensorRTEEEESaISC_EE17_M_realloc_insertIJS9_EEEvN9__gnu_cxx17__normal_iteratorIPSC_SE_EEDpOT_(ptr noundef nonnull align 8 dereferenceable(24) %14, ptr %6, ptr noundef nonnull align 1 dereferenceable(3) %3)
  br label %_ZN2cv4gapi4onnx6ParamsINS0_7GenericEE23cfgAddExecutionProviderEONS1_2ep6CoreMLE.exit

_ZN2cv4gapi4onnx6ParamsINS0_7GenericEE23cfgAddExecutionProviderEONS1_2ep6CoreMLE.exit: ; preds = %9, %13
  ret ptr %0
}